; Function Attrs: mustprogress uwtable
define void @_ZNK2cv3reg8MapShift10inverseMapEv(ptr dead_on_unwind noalias writable writeonly sret(%"struct.cv::Ptr") align 8 captures(none) %0, ptr noundef nonnull readonly align 8 captures(none) dereferenceable(24) %1) unnamed_addr #2 align 2 personality ptr @__gxx_personality_v0 {
.critedge:
  %2 = alloca %"class.cv::Vec", align 8
  %3 = alloca %"class.cv::_InputArray", align 8
  call void @llvm.lifetime.start.p0(i64 16, ptr nonnull %2) #15
  %4 = getelementptr inbounds nuw i8, ptr %1, i64 8
  tail call void @llvm.experimental.noalias.scope.decl(metadata !42)
  %indvars.iv.i.sroa.gep6 = getelementptr inbounds nuw i8, ptr %2, i64 8
  %5 = load double, ptr %4, align 8, !tbaa !6, !noalias !42
  %6 = fneg double %5
  store double %6, ptr %2, align 8, !tbaa !6, !alias.scope !42
  %7 = getelementptr inbounds nuw i8, ptr %1, i64 16
  %8 = load double, ptr %7, align 8, !tbaa !6, !noalias !42
  %9 = fneg double %8
  store double %9, ptr %indvars.iv.i.sroa.gep6, align 8, !tbaa !6, !alias.scope !42
  %10 = tail call noalias noundef nonnull dereferenceable(24) ptr @_Znwm(i64 noundef 24) #17
  call void @llvm.lifetime.start.p0(i64 24, ptr nonnull %3) #15
  %11 = getelementptr inbounds nuw i8, ptr %3, i64 16
  store i32 -1056833530, ptr %3, align 8, !tbaa !17
  %12 = getelementptr inbounds nuw i8, ptr %3, i64 8
  store ptr %2, ptr %12, align 8, !tbaa !9
  store i64 8589934593, ptr %11, align 8
  invoke void @_ZN2cv3reg8MapShiftC1ERKNS_11_InputArrayE(ptr noundef nonnull align 8 dereferenceable(24) %10, ptr noundef nonnull align 8 dereferenceable(24) %3)
          to label %13 unwind label %33

13:                                               ; preds = %.critedge
  store ptr %10, ptr %0, align 8, !tbaa !45
  %14 = getelementptr inbounds nuw i8, ptr %0, i64 8
  store ptr null, ptr %14, align 8, !tbaa !50
  %15 = invoke noalias noundef nonnull dereferenceable(24) ptr @_Znwm(i64 noundef 24) #17
          to label %29 unwind label %16

16:                                               ; preds = %13
  %17 = landingpad { ptr, i32 }
          catch ptr null
  %18 = extractvalue { ptr, i32 } %17, 0
  %19 = call ptr @__cxa_begin_catch(ptr %18) #15
  %20 = load ptr, ptr %10, align 8, !tbaa !3
  %21 = getelementptr inbounds nuw i8, ptr %20, i64 8
  %22 = load ptr, ptr %21, align 8
  call void %22(ptr noundef nonnull align 8 dereferenceable(24) %10) #15
  invoke void @__cxa_rethrow() #18
          to label %28 unwind label %23

23:                                               ; preds = %16
  %24 = landingpad { ptr, i32 }
          cleanup
  invoke void @__cxa_end_catch()
          to label %.body unwind label %25

25:                                               ; preds = %23
  %26 = landingpad { ptr, i32 }
          catch ptr null
  %27 = extractvalue { ptr, i32 } %26, 0
  call void @__clang_call_terminate(ptr %27) #19
  unreachable

28:                                               ; preds = %16
  unreachable

29:                                               ; preds = %13
  %30 = getelementptr inbounds nuw i8, ptr %15, i64 8
  store i32 1, ptr %30, align 8, !tbaa !51
  %31 = getelementptr inbounds nuw i8, ptr %15, i64 12
  store i32 1, ptr %31, align 4, !tbaa !53
  store ptr getelementptr inbounds nuw inrange(-16, 40) (i8, ptr @_ZTVSt15_Sp_counted_ptrIPN2cv3reg8MapShiftELN9__gnu_cxx12_Lock_policyE2EE, i64 16), ptr %15, align 8, !tbaa !3
  %32 = getelementptr inbounds nuw i8, ptr %15, i64 16
  store ptr %10, ptr %32, align 8, !tbaa !54
  store ptr %15, ptr %14, align 8, !tbaa !50
  call void @llvm.lifetime.end.p0(i64 24, ptr nonnull %3) #15
  call void @llvm.lifetime.end.p0(i64 16, ptr nonnull %2) #15
  ret void

33:                                               ; preds = %.critedge
  %34 = landingpad { ptr, i32 }
          cleanup
  call void @llvm.lifetime.end.p0(i64 24, ptr nonnull %3) #15
  call void @_ZdlPv(ptr noundef nonnull %10) #16
  br label %35

.body:                                            ; preds = %23
  call void @llvm.lifetime.end.p0(i64 24, ptr nonnull %3) #15
  br label %35

35:                                               ; preds = %.body, %33
  %.pn9 = phi { ptr, i32 } [ %34, %33 ], [ %24, %.body ]
  call void @llvm.lifetime.end.p0(i64 16, ptr nonnull %2) #15
  resume { ptr, i32 } %.pn9
}